target datalayout = "e-m:e-p270:32:32-p271:32:32-p272:64:64-i64:64-i128:128-f80:128-n8:16:32:64-S128"
target triple = "x86_64-pc-linux-gnu"

@srvparsenewcb = internal global i32 0, align 4
@clntparsenewcb = internal global i32 0, align 4

; Function Attrs: nounwind uwtable
define internal i32 @new_parse_cb(ptr noundef %0, i32 noundef %1, i32 noundef %2, ptr noundef %3, i64 noundef %4, ptr noundef %5, i64 noundef %6, ptr noundef %7, ptr noundef %8) #0 {
  %10 = alloca i32, align 4
  %11 = alloca ptr, align 8
  %12 = alloca i32, align 4
  %13 = alloca i32, align 4
  %14 = alloca ptr, align 8
  %15 = alloca i64, align 8
  %16 = alloca ptr, align 8
  %17 = alloca i64, align 8
  %18 = alloca ptr, align 8
  %19 = alloca ptr, align 8
  %20 = alloca ptr, align 8
  %21 = alloca i32, align 4
  store ptr %0, ptr %11, align 8, !tbaa !21
  store i32 %1, ptr %12, align 4, !tbaa !13
  store i32 %2, ptr %13, align 4, !tbaa !13
  store ptr %3, ptr %14, align 8, !tbaa !11
  store i64 %4, ptr %15, align 8, !tbaa !17
  store ptr %5, ptr %16, align 8, !tbaa !31
  store i64 %6, ptr %17, align 8, !tbaa !17
  store ptr %7, ptr %18, align 8, !tbaa !80
  store ptr %8, ptr %19, align 8, !tbaa !16
  call void @llvm.lifetime.start.p0(i64 8, ptr %20) #9
  %22 = load ptr, ptr %19, align 8, !tbaa !16
  store ptr %22, ptr %20, align 8, !tbaa !80
  %23 = load ptr, ptr %11, align 8, !tbaa !21
  %24 = call i32 @SSL_is_server(ptr noundef %23)
  %25 = icmp ne i32 %24, 0
  br i1 %25, label %26, label %29

26:                                               ; preds = %9
  %27 = load i32, ptr @srvparsenewcb, align 4, !tbaa !13
  %28 = add nsw i32 %27, 1
  store i32 %28, ptr @srvparsenewcb, align 4, !tbaa !13
  br label %32

29:                                               ; preds = %9
  %30 = load i32, ptr @clntparsenewcb, align 4, !tbaa !13
  %31 = add nsw i32 %30, 1
  store i32 %31, ptr @clntparsenewcb, align 4, !tbaa !13
  br label %32

32:                                               ; preds = %29, %26
  %33 = load ptr, ptr %20, align 8, !tbaa !80
  %34 = load i32, ptr %33, align 4, !tbaa !13
  %35 = load ptr, ptr %11, align 8, !tbaa !21
  %36 = call i32 @SSL_is_server(ptr noundef %35)
  %37 = icmp ne i32 %34, %36
  br i1 %37, label %46, label %38

38:                                               ; preds = %32
  %39 = load i64, ptr %15, align 8, !tbaa !17
  %40 = icmp ne i64 %39, 1
  br i1 %40, label %46, label %41

41:                                               ; preds = %38
  %42 = load ptr, ptr %14, align 8, !tbaa !11
  %43 = load i8, ptr %42, align 1, !tbaa !35
  %44 = zext i8 %43 to i32
  %45 = icmp ne i32 %44, 1
  br i1 %45, label %46, label %47

46:                                               ; preds = %41, %38, %32
  store i32 -1, ptr %10, align 4
  store i32 1, ptr %21, align 4
  br label %48

47:                                               ; preds = %41
  store i32 1, ptr %10, align 4
  store i32 1, ptr %21, align 4
  br label %48

48:                                               ; preds = %47, %46
  call void @llvm.lifetime.end.p0(i64 8, ptr %20) #9
  %49 = load i32, ptr %10, align 4
  ret i32 %49
}