; Function Attrs: nounwind uwtable
define internal range(i32 -1, 2) i32 @new_parse_cb(ptr noundef %0, i32 %1, i32 %2, ptr noundef readonly captures(none) %3, i64 noundef %4, ptr readnone captures(none) %5, i64 %6, ptr readnone captures(none) %7, ptr noundef readonly captures(none) %8) #1 {
  %10 = tail call i32 @SSL_is_server(ptr noundef %0) #24
  %.not = icmp eq i32 %10, 0
  %clntparsenewcb.srvparsenewcb = select i1 %.not, ptr @clntparsenewcb, ptr @srvparsenewcb
  %11 = load i32, ptr %clntparsenewcb.srvparsenewcb, align 4, !tbaa !14
  %12 = add nsw i32 %11, 1
  store i32 %12, ptr %clntparsenewcb.srvparsenewcb, align 4, !tbaa !14
  %13 = load i32, ptr %8, align 4, !tbaa !14
  %14 = tail call i32 @SSL_is_server(ptr noundef %0) #24
  %15 = icmp ne i32 %13, %14
  %16 = icmp ne i64 %4, 1
  %or.cond = or i1 %16, %15
  br i1 %or.cond, label %19, label %17

17:                                               ; preds = %9
  %18 = load i8, ptr %3, align 1, !tbaa !27
  %.not7 = icmp eq i8 %18, 1
  %spec.select = select i1 %.not7, i32 1, i32 -1
  br label %19

19:                                               ; preds = %17, %9
  %.0 = phi i32 [ -1, %9 ], [ %spec.select, %17 ]
  ret i32 %.0
}